target datalayout = "e-m:e-p270:32:32-p271:32:32-p272:64:64-i64:64-i128:128-f80:128-n8:16:32:64-S128"
target triple = "x86_64-pc-linux-gnu"

%struct.tcapsrt_info_t = type { i32, i32, i32, i8 }
%struct.ansi_tcap_private_t = type { i32, i8, ptr, i32, ptr, ptr, %struct.anon }
%struct.anon = type { i32, i32, i32, i32, ptr }
%struct._asn1_ctx_t = type { i32, i32, i8, ptr, ptr, ptr, ptr, ptr, %struct.anon.0, %struct.anon.3, %struct.anon.4, ptr }
%struct.anon.0 = type { i32, i8, i8, i8, ptr, ptr, i32, i32, ptr, ptr, ptr, %union.anon }
%union.anon = type { %struct.anon.1 }
%struct.anon.1 = type { ptr }
%struct.anon.3 = type { ptr, ptr, ptr }
%struct.anon.4 = type { i32, i8, ptr, i32, i32, ptr, ptr, ptr, %union.anon.5 }
%union.anon.5 = type { %struct.anon.6 }
%struct.anon.6 = type { ptr }
%struct._packet_info = type { ptr, ptr, i32, i32, %struct.nstime_t, %struct.nstime_t, %struct.nstime_t, i8, ptr, ptr, ptr, ptr, %struct._address, %struct._address, %struct._address, %struct._address, %struct._address, %struct._address, i32, ptr, i8, [3 x i8], %struct.anon.8, i32, i32, i32, i32, ptr, i8, ptr, ptr, i16, i16, i32, i32, i16, i32, i32, ptr, ptr, ptr, i8, i8, i16, i16, i16, i32, i16, i16, ptr, ptr, ptr, ptr, ptr, i32, i32 }
%struct.nstime_t = type { i64, i32 }
%struct._address = type { i32, i32, ptr, ptr }
%struct.anon.8 = type { i8, [3 x i8] }

@ansi_tcap_private = hidden global %struct.ansi_tcap_private_t zeroinitializer, align 8
@gp_tcapsrt_info = internal global ptr null, align 8

; Function Attrs: null_pointer_is_valid sspstrong uwtable
define internal i32 @dissect_ansi_tcap_TransactionID_U(i1 noundef zeroext %0, ptr noundef %1, i32 noundef %2, ptr noundef %3, ptr noundef %4, i32 noundef %5) #0 {
  %7 = alloca i8, align 1
  %8 = alloca ptr, align 8
  %9 = alloca i32, align 4
  %10 = alloca ptr, align 8
  %11 = alloca ptr, align 8
  %12 = alloca i32, align 4
  %13 = alloca ptr, align 8
  %14 = alloca i8, align 1
  %15 = zext i1 %0 to i8
  store i8 %15, ptr %7, align 1
  store ptr %1, ptr %8, align 8
  store i32 %2, ptr %9, align 4
  store ptr %3, ptr %10, align 8
  store ptr %4, ptr %11, align 8
  store i32 %5, ptr %12, align 4
  call void @llvm.lifetime.start.p0(i64 8, ptr %13) #9
  call void @llvm.lifetime.start.p0(i64 1, ptr %14) #9
  %16 = load i8, ptr %7, align 1, !range !6, !noundef !7
  %17 = trunc i8 %16 to i1
  %18 = load ptr, ptr %10, align 8
  %19 = load ptr, ptr %11, align 8
  %20 = load ptr, ptr %8, align 8
  %21 = load i32, ptr %9, align 4
  %22 = load i32, ptr %12, align 4
  %23 = call i32 @dissect_ber_octet_string(i1 noundef zeroext %17, ptr noundef %18, ptr noundef %19, ptr noundef %20, i32 noundef %21, i32 noundef %22, ptr noundef %13)
  store i32 %23, ptr %9, align 4
  %24 = load ptr, ptr %13, align 8
  %25 = icmp ne ptr %24, null
  br i1 %25, label %26, label %83

26:                                               ; preds = %6
  %27 = load ptr, ptr %13, align 8
  %28 = call i32 @tvb_reported_length_remaining(ptr noundef %27, i32 noundef 0)
  %29 = trunc i32 %28 to i8
  store i8 %29, ptr %14, align 1
  %30 = load i8, ptr %14, align 1
  %31 = zext i8 %30 to i32
  %32 = icmp ne i32 %31, 0
  br i1 %32, label %33, label %59

33:                                               ; preds = %26
  %34 = load i8, ptr %14, align 1
  %35 = zext i8 %34 to i32
  %36 = icmp sgt i32 %35, 4
  br i1 %36, label %37, label %48

37:                                               ; preds = %33
  %38 = load ptr, ptr %10, align 8
  %39 = getelementptr inbounds nuw %struct._asn1_ctx_t, ptr %38, i32 0, i32 3
  %40 = load ptr, ptr %39, align 8
  %41 = getelementptr inbounds nuw %struct._packet_info, ptr %40, i32 0, i32 51
  %42 = load ptr, ptr %41, align 8
  %43 = load ptr, ptr %13, align 8
  %44 = load i8, ptr %14, align 1
  %45 = zext i8 %44 to i32
  %46 = sub i32 %45, 4
  %47 = call ptr @tvb_bytes_to_str(ptr noundef %42, ptr noundef %43, i32 noundef 4, i32 noundef %46)
  store ptr %47, ptr getelementptr inbounds nuw (%struct.ansi_tcap_private_t, ptr @ansi_tcap_private, i32 0, i32 5), align 8
  br label %58

48:                                               ; preds = %33
  %49 = load ptr, ptr %10, align 8
  %50 = getelementptr inbounds nuw %struct._asn1_ctx_t, ptr %49, i32 0, i32 3
  %51 = load ptr, ptr %50, align 8
  %52 = getelementptr inbounds nuw %struct._packet_info, ptr %51, i32 0, i32 51
  %53 = load ptr, ptr %52, align 8
  %54 = load ptr, ptr %13, align 8
  %55 = load i8, ptr %14, align 1
  %56 = zext i8 %55 to i32
  %57 = call ptr @tvb_bytes_to_str(ptr noundef %53, ptr noundef %54, i32 noundef 0, i32 noundef %56)
  store ptr %57, ptr getelementptr inbounds nuw (%struct.ansi_tcap_private_t, ptr @ansi_tcap_private, i32 0, i32 5), align 8
  br label %58

58:                                               ; preds = %48, %37
  br label %59

59:                                               ; preds = %58, %26
  %60 = load i8, ptr %14, align 1
  %61 = zext i8 %60 to i32
  switch i32 %61, label %79 [
    i32 1, label %62
    i32 2, label %68
    i32 4, label %74
  ]

62:                                               ; preds = %59
  %63 = load ptr, ptr %13, align 8
  %64 = call zeroext i8 @tvb_get_uint8(ptr noundef %63, i32 noundef 0)
  %65 = zext i8 %64 to i32
  %66 = load ptr, ptr @gp_tcapsrt_info, align 8
  %67 = getelementptr inbounds nuw %struct.tcapsrt_info_t, ptr %66, i32 0, i32 1
  store i32 %65, ptr %67, align 4
  br label %82

68:                                               ; preds = %59
  %69 = load ptr, ptr %13, align 8
  %70 = call zeroext i16 @tvb_get_ntohs(ptr noundef %69, i32 noundef 0)
  %71 = zext i16 %70 to i32
  %72 = load ptr, ptr @gp_tcapsrt_info, align 8
  %73 = getelementptr inbounds nuw %struct.tcapsrt_info_t, ptr %72, i32 0, i32 1
  store i32 %71, ptr %73, align 4
  br label %82

74:                                               ; preds = %59
  %75 = load ptr, ptr %13, align 8
  %76 = call i32 @tvb_get_ntohl(ptr noundef %75, i32 noundef 0)
  %77 = load ptr, ptr @gp_tcapsrt_info, align 8
  %78 = getelementptr inbounds nuw %struct.tcapsrt_info_t, ptr %77, i32 0, i32 1
  store i32 %76, ptr %78, align 4
  br label %82

79:                                               ; preds = %59
  %80 = load ptr, ptr @gp_tcapsrt_info, align 8
  %81 = getelementptr inbounds nuw %struct.tcapsrt_info_t, ptr %80, i32 0, i32 1
  store i32 0, ptr %81, align 4
  br label %82

82:                                               ; preds = %79, %74, %68, %62
  br label %83

83:                                               ; preds = %82, %6
  %84 = load i32, ptr %9, align 4
  call void @llvm.lifetime.end.p0(i64 1, ptr %14) #9
  call void @llvm.lifetime.end.p0(i64 8, ptr %13) #9
  ret i32 %84
}