; Function Attrs: null_pointer_is_valid sspstrong uwtable
define internal i32 @dissect_ansi_tcap_TransactionID_U(i1 noundef zeroext %0, ptr noundef %1, i32 noundef %2, ptr noundef %3, ptr noundef %4, i32 noundef %5) #0 {
  %7 = alloca ptr, align 8
  call void @llvm.lifetime.start.p0(i64 8, ptr nonnull %7) #6
  %8 = call i32 @dissect_ber_octet_string(i1 noundef zeroext %0, ptr noundef %3, ptr noundef %4, ptr noundef %1, i32 noundef %2, i32 noundef %5, ptr noundef nonnull %7)
  %9 = load ptr, ptr %7, align 8
  %.not = icmp eq ptr %9, null
  br i1 %.not, label %39, label %10

10:                                               ; preds = %6
  %11 = call i32 @tvb_reported_length_remaining(ptr noundef nonnull %9, i32 noundef 0)
  %12 = and i32 %11, 255
  %.not14 = icmp eq i32 %12, 0
  br i1 %.not14, label %25, label %13

13:                                               ; preds = %10
  %14 = icmp samesign ugt i32 %12, 4
  %15 = getelementptr inbounds nuw i8, ptr %3, i64 16
  %16 = load ptr, ptr %15, align 8
  %17 = getelementptr inbounds nuw i8, ptr %16, i64 408
  %18 = load ptr, ptr %17, align 8
  %19 = load ptr, ptr %7, align 8
  br i1 %14, label %20, label %23

20:                                               ; preds = %13
  %21 = add nsw i32 %12, -4
  %22 = call ptr @tvb_bytes_to_str(ptr noundef %18, ptr noundef %19, i32 noundef 4, i32 noundef %21)
  br label %.sink.split

23:                                               ; preds = %13
  %24 = call ptr @tvb_bytes_to_str(ptr noundef %18, ptr noundef %19, i32 noundef 0, i32 noundef %12)
  br label %.sink.split

.sink.split:                                      ; preds = %23, %20
  %.sink = phi ptr [ %22, %20 ], [ %24, %23 ]
  store ptr %.sink, ptr getelementptr inbounds nuw (i8, ptr @ansi_tcap_private, i64 32), align 8
  br label %25

25:                                               ; preds = %.sink.split, %10
  %trunc = trunc i32 %11 to i8
  switch i8 %trunc, label %.sink.split15 [
    i8 1, label %26
    i8 2, label %30
    i8 4, label %34
  ]

26:                                               ; preds = %25
  %27 = load ptr, ptr %7, align 8
  %28 = call zeroext i8 @tvb_get_uint8(ptr noundef %27, i32 noundef 0)
  %29 = zext i8 %28 to i32
  br label %.sink.split15

30:                                               ; preds = %25
  %31 = load ptr, ptr %7, align 8
  %32 = call zeroext i16 @tvb_get_ntohs(ptr noundef %31, i32 noundef 0)
  %33 = zext i16 %32 to i32
  br label %.sink.split15

34:                                               ; preds = %25
  %35 = load ptr, ptr %7, align 8
  %36 = call i32 @tvb_get_ntohl(ptr noundef %35, i32 noundef 0)
  br label %.sink.split15

.sink.split15:                                    ; preds = %25, %34, %30, %26
  %.sink16 = phi i32 [ %29, %26 ], [ %33, %30 ], [ %36, %34 ], [ 0, %25 ]
  %37 = load ptr, ptr @gp_tcapsrt_info, align 8
  %38 = getelementptr inbounds nuw i8, ptr %37, i64 4
  store i32 %.sink16, ptr %38, align 4
  br label %39

39:                                               ; preds = %.sink.split15, %6
  call void @llvm.lifetime.end.p0(i64 8, ptr nonnull %7) #6
  ret i32 %8
}